target datalayout = "e-m:e-p270:32:32-p271:32:32-p272:64:64-i64:64-i128:128-f80:128-n8:16:32:64-S128"
target triple = "x86_64-pc-linux-gnu"

%struct.H5FD_splitter_fapl_t = type { i64, i64, [4097 x i8], [4097 x i8], i8 }
%struct.H5FD_splitter_t = type { %struct.H5FD_t, i32, %struct.H5FD_splitter_fapl_t, ptr, ptr, ptr }
%struct.H5FD_t = type { i64, ptr, i64, i32, i64, i64, i64, i64, i64, i8 }

@H5FD_init_g = external global i8, align 1
@H5_libterm_g = external global i8, align 1
@.str = private unnamed_addr constant [106 x i8] c"generated/home/dtcxzyw/WorkSpace/Projects/compilers/llvm-opt-benchmark/bench/hdf5/hdf5/src/H5FDsplitter.c\00", align 1
@H5E_VFL_g = external global i64, align 8
@__func__.H5FD__splitter_lock = private unnamed_addr constant [20 x i8] c"H5FD__splitter_lock\00", align 1
@H5E_CANTLOCKFILE_g = external global i64, align 8
@.str.66 = private unnamed_addr constant [24 x i8] c"unable to lock R/W file\00", align 1
@.str.67 = private unnamed_addr constant [24 x i8] c"unable to lock W/O file\00", align 1

; Function Attrs: nounwind uwtable
define internal i32 @H5FD__splitter_lock(ptr noundef %0, i1 noundef zeroext %1) #0 {
  %3 = alloca ptr, align 8
  %4 = alloca i8, align 1
  %5 = alloca ptr, align 8
  %6 = alloca i32, align 4
  %7 = alloca i8, align 1
  store ptr %0, ptr %3, align 8, !tbaa !38
  %8 = zext i1 %1 to i8
  store i8 %8, ptr %4, align 1, !tbaa !7
  call void @llvm.lifetime.start.p0(i64 8, ptr %5) #10
  %9 = load ptr, ptr %3, align 8, !tbaa !38
  store ptr %9, ptr %5, align 8, !tbaa !40
  call void @llvm.lifetime.start.p0(i64 4, ptr %6) #10
  store i32 0, ptr %6, align 4, !tbaa !3
  call void @llvm.lifetime.start.p0(i64 1, ptr %7) #10
  store i8 0, ptr %7, align 1, !tbaa !7
  %10 = load i8, ptr @H5FD_init_g, align 1, !tbaa !7, !range !9, !noundef !10
  %11 = trunc i8 %10 to i1
  br i1 %11, label %16, label %12

12:                                               ; preds = %2
  %13 = load i8, ptr @H5_libterm_g, align 1, !tbaa !7, !range !9, !noundef !10
  %14 = trunc i8 %13 to i1
  %15 = xor i1 %14, true
  br label %16

16:                                               ; preds = %12, %2
  %17 = phi i1 [ true, %2 ], [ %15, %12 ]
  %18 = xor i1 %17, true
  %19 = xor i1 %18, true
  %20 = zext i1 %19 to i32
  %21 = sext i32 %20 to i64
  %22 = call i64 @llvm.expect.i64(i64 %21, i64 1)
  %23 = icmp ne i64 %22, 0
  br i1 %23, label %24, label %97

24:                                               ; preds = %16
  %25 = load ptr, ptr %5, align 8, !tbaa !40
  %26 = getelementptr inbounds nuw %struct.H5FD_splitter_t, ptr %25, i32 0, i32 3
  %27 = load ptr, ptr %26, align 8, !tbaa !42
  %28 = load i8, ptr %4, align 1, !tbaa !7, !range !9, !noundef !10
  %29 = trunc i8 %28 to i1
  %30 = call i32 @H5FD_lock(ptr noundef %27, i1 noundef zeroext %29)
  %31 = icmp slt i32 %30, 0
  br i1 %31, label %32, label %51

32:                                               ; preds = %24
  br label %33

33:                                               ; preds = %32
  br label %34

34:                                               ; preds = %33
  br label %35

35:                                               ; preds = %34
  %36 = load i64, ptr @H5E_VFL_g, align 8, !tbaa !11
  %37 = load i64, ptr @H5E_CANTLOCKFILE_g, align 8, !tbaa !11
  %38 = call i32 (ptr, ptr, i32, i64, i64, ptr, ...) @H5E_printf_stack(ptr noundef @.str, ptr noundef @__func__.H5FD__splitter_lock, i32 noundef 1222, i64 noundef %36, i64 noundef %37, ptr noundef @.str.66)
  br label %39

39:                                               ; preds = %35
  br label %40

40:                                               ; preds = %39
  store i8 1, ptr %7, align 1, !tbaa !7
  %41 = load i8, ptr %7, align 1, !tbaa !7, !range !9, !noundef !10
  %42 = trunc i8 %41 to i1
  %43 = zext i1 %42 to i8
  store i8 %43, ptr %7, align 1, !tbaa !7
  br label %44

44:                                               ; preds = %40
  br label %45

45:                                               ; preds = %44
  br label %46

46:                                               ; preds = %45
  store i32 -1, ptr %6, align 4, !tbaa !3
  br label %96

47:                                               ; No predecessors!
  br label %48

48:                                               ; preds = %47
  br label %49

49:                                               ; preds = %48
  br label %50

50:                                               ; preds = %49
  br label %51

51:                                               ; preds = %50, %24
  %52 = load ptr, ptr %5, align 8, !tbaa !40
  %53 = getelementptr inbounds nuw %struct.H5FD_splitter_t, ptr %52, i32 0, i32 4
  %54 = load ptr, ptr %53, align 8, !tbaa !52
  %55 = icmp ne ptr %54, null
  br i1 %55, label %56, label %95

56:                                               ; preds = %51
  %57 = load ptr, ptr %5, align 8, !tbaa !40
  %58 = getelementptr inbounds nuw %struct.H5FD_splitter_t, ptr %57, i32 0, i32 4
  %59 = load ptr, ptr %58, align 8, !tbaa !52
  %60 = load i8, ptr %4, align 1, !tbaa !7, !range !9, !noundef !10
  %61 = trunc i8 %60 to i1
  %62 = call i32 @H5FD_lock(ptr noundef %59, i1 noundef zeroext %61)
  %63 = icmp slt i32 %62, 0
  br i1 %63, label %64, label %94

64:                                               ; preds = %56
  %65 = load ptr, ptr %5, align 8, !tbaa !40
  %66 = call i32 @H5FD__splitter_log_error(ptr noundef %65, ptr noundef @__func__.H5FD__splitter_lock, ptr noundef @.str.67)
  %67 = load ptr, ptr %5, align 8, !tbaa !40
  %68 = getelementptr inbounds nuw %struct.H5FD_splitter_t, ptr %67, i32 0, i32 2
  %69 = getelementptr inbounds nuw %struct.H5FD_splitter_fapl_t, ptr %68, i32 0, i32 4
  %70 = load i8, ptr %69, align 2, !tbaa !50, !range !9, !noundef !10
  %71 = trunc i8 %70 to i1
  %72 = zext i1 %71 to i32
  %73 = icmp eq i32 0, %72
  br i1 %73, label %74, label %93

74:                                               ; preds = %64
  br label %75

75:                                               ; preds = %74
  br label %76

76:                                               ; preds = %75
  br label %77

77:                                               ; preds = %76
  %78 = load i64, ptr @H5E_VFL_g, align 8, !tbaa !11
  %79 = load i64, ptr @H5E_CANTLOCKFILE_g, align 8, !tbaa !11
  %80 = call i32 (ptr, ptr, i32, i64, i64, ptr, ...) @H5E_printf_stack(ptr noundef @.str, ptr noundef @__func__.H5FD__splitter_lock, i32 noundef 1226, i64 noundef %78, i64 noundef %79, ptr noundef @.str.67)
  br label %81

81:                                               ; preds = %77
  br label %82

82:                                               ; preds = %81
  store i8 1, ptr %7, align 1, !tbaa !7
  %83 = load i8, ptr %7, align 1, !tbaa !7, !range !9, !noundef !10
  %84 = trunc i8 %83 to i1
  %85 = zext i1 %84 to i8
  store i8 %85, ptr %7, align 1, !tbaa !7
  br label %86

86:                                               ; preds = %82
  br label %87

87:                                               ; preds = %86
  br label %88

88:                                               ; preds = %87
  store i32 -1, ptr %6, align 4, !tbaa !3
  br label %96

89:                                               ; No predecessors!
  br label %90

90:                                               ; preds = %89
  br label %91

91:                                               ; preds = %90
  br label %92

92:                                               ; preds = %91
  br label %93

93:                                               ; preds = %92, %64
  br label %94

94:                                               ; preds = %93, %56
  br label %95

95:                                               ; preds = %94, %51
  br label %96

96:                                               ; preds = %95, %88, %46
  br label %97

97:                                               ; preds = %96, %16
  %98 = load i32, ptr %6, align 4, !tbaa !3
  call void @llvm.lifetime.end.p0(i64 1, ptr %7) #10
  call void @llvm.lifetime.end.p0(i64 4, ptr %6) #10
  call void @llvm.lifetime.end.p0(i64 8, ptr %5) #10
  ret i32 %98
}