; Function Attrs: nounwind uwtable
define internal range(i32 -1, 1) i32 @H5FD__splitter_lock(ptr noundef readonly captures(none) %0, i1 noundef zeroext %1) #0 {
  %3 = load i8, ptr @H5FD_init_g, align 1, !tbaa !3, !range !7, !noundef !8
  %4 = trunc nuw i8 %3 to i1
  %5 = load i8, ptr @H5_libterm_g, align 1, !range !7
  %6 = trunc nuw i8 %5 to i1
  %7 = xor i1 %6, true
  %8 = select i1 %4, i1 true, i1 %7
  br i1 %8, label %9, label %32, !prof !9

9:                                                ; preds = %2
  %10 = getelementptr inbounds nuw i8, ptr %0, i64 8304
  %11 = load ptr, ptr %10, align 8, !tbaa !33
  %12 = tail call i32 @H5FD_lock(ptr noundef %11, i1 noundef zeroext %1) #12
  %13 = icmp slt i32 %12, 0
  br i1 %13, label %14, label %18

14:                                               ; preds = %9
  %15 = load i64, ptr @H5E_VFL_g, align 8, !tbaa !10
  %16 = load i64, ptr @H5E_CANTLOCKFILE_g, align 8, !tbaa !10
  %17 = tail call i32 (ptr, ptr, i32, i64, i64, ptr, ...) @H5E_printf_stack(ptr noundef nonnull @.str, ptr noundef nonnull @__func__.H5FD__splitter_lock, i32 noundef 1222, i64 noundef %15, i64 noundef %16, ptr noundef nonnull @.str.66) #12
  br label %32

18:                                               ; preds = %9
  %19 = getelementptr inbounds nuw i8, ptr %0, i64 8312
  %20 = load ptr, ptr %19, align 8, !tbaa !43
  %.not = icmp eq ptr %20, null
  br i1 %.not, label %32, label %21

21:                                               ; preds = %18
  %22 = tail call i32 @H5FD_lock(ptr noundef nonnull %20, i1 noundef zeroext %1) #12
  %23 = icmp slt i32 %22, 0
  br i1 %23, label %24, label %32

24:                                               ; preds = %21
  tail call fastcc void @H5FD__splitter_log_error(ptr noundef nonnull %0, ptr noundef nonnull @__func__.H5FD__splitter_lock, ptr noundef nonnull @.str.67)
  %25 = getelementptr inbounds nuw i8, ptr %0, i64 8298
  %26 = load i8, ptr %25, align 2, !tbaa !39, !range !7, !noundef !8
  %27 = icmp eq i8 %26, 0
  br i1 %27, label %28, label %32

28:                                               ; preds = %24
  %29 = load i64, ptr @H5E_VFL_g, align 8, !tbaa !10
  %30 = load i64, ptr @H5E_CANTLOCKFILE_g, align 8, !tbaa !10
  %31 = tail call i32 (ptr, ptr, i32, i64, i64, ptr, ...) @H5E_printf_stack(ptr noundef nonnull @.str, ptr noundef nonnull @__func__.H5FD__splitter_lock, i32 noundef 1226, i64 noundef %29, i64 noundef %30, ptr noundef nonnull @.str.67) #12
  br label %32

32:                                               ; preds = %14, %28, %21, %24, %18, %2
  %.0 = phi i32 [ -1, %14 ], [ -1, %28 ], [ 0, %24 ], [ 0, %21 ], [ 0, %18 ], [ 0, %2 ]
  ret i32 %.0
}